0000000100000f54 s GCC_except_table3
0000000100000f00 t __GLOBAL__sub_I_ANN.cc
                 U __Unwind_Resume
0000000100000e40 t __ZN7sc_core18sc_process_monitor6signalEPNS_17sc_thread_processEi
0000000100000e80 t __ZN7sc_core18sc_process_monitorD0Ev
0000000100000e60 t __ZN7sc_core18sc_process_monitorD1Ev
0000000100000ed0 t __ZN7sc_core18sc_process_monitorD2Ev
                 U __ZN7sc_core31sc_api_version_2_3_2_cxx199711LIXadL_ZNS_34SC_DISABLE_VIRTUAL_BIND_UNDEFINED_EEEEC1ENS_16sc_writer_policyE
0000000100001078 b __ZN7sc_coreL17api_version_checkE
0000000100001068 D __ZTIN7sc_core18sc_process_monitorE
0000000100000f80 S __ZTSN7sc_core18sc_process_monitorE
                 U __ZTVN10__cxxabiv117__class_type_infoE
0000000100001040 d __ZTVN7sc_core18sc_process_monitorE
                 U __ZdlPv
0000000100000ee0 t ___cxx_global_var_init
                 U ___gxx_personality_v0
0000000100000000 T __mh_execute_header
                 U _main
                 U dyld_stub_binder
 
0000000100000f54 s GCC_except_table3
0000000100000f00 t __GLOBAL__sub_I_ANN.cc
                 U __Unwind_Resume
0000000100000e40 t __ZN7sc_core18sc_process_monitor6signalEPNS_17sc_thread_processEi
0000000100000e80 t __ZN7sc_core18sc_process_monitorD0Ev
0000000100000e60 t __ZN7sc_core18sc_process_monitorD1Ev
0000000100000ed0 t __ZN7sc_core18sc_process_monitorD2Ev
                 U __ZN7sc_core31sc_api_version_2_3_2_cxx199711LIXadL_ZNS_34SC_DISABLE_VIRTUAL_BIND_UNDEFINED_EEEEC1ENS_16sc_writer_policyE
0000000100001078 b __ZN7sc_coreL17api_version_checkE
0000000100001068 D __ZTIN7sc_core18sc_process_monitorE
0000000100000f80 S __ZTSN7sc_core18sc_process_monitorE
                 U __ZTVN10__cxxabiv117__class_type_infoE
0000000100001040 d __ZTVN7sc_core18sc_process_monitorE
                 U __ZdlPv
0000000100000ee0 t ___cxx_global_var_init
                 U ___gxx_personality_v0
0000000100000000 T __mh_execute_header
                 U _main
                 U dyld_stub_binder
